; Function Attrs: inlinehint mustprogress nounwind optsize uwtable
define internal void @"_ZZZL30nanobind_init_test_ndarray_extRN8nanobind7module_EENK4$_53clEvENUlPvE_8__invokeES3_"(ptr noundef %0) #8 align 2 {
  %2 = load i32, ptr @destruct_count, align 4, !tbaa !105
  %3 = add nsw i32 %2, 1
  store i32 %3, ptr @destruct_count, align 4, !tbaa !105
  %4 = icmp eq ptr %0, null
  br i1 %4, label %"_ZZZL30nanobind_init_test_ndarray_extRN8nanobind7module_EENK4$_53clEvENKUlPvE_clES3_.exit", label %5

5:                                                ; preds = %1
  tail call void @_ZdlPvmSt11align_val_t(ptr noundef nonnull %0, i64 noundef 256, i64 noundef 256) #26
  br label %"_ZZZL30nanobind_init_test_ndarray_extRN8nanobind7module_EENK4$_53clEvENKUlPvE_clES3_.exit"

"_ZZZL30nanobind_init_test_ndarray_extRN8nanobind7module_EENK4$_53clEvENKUlPvE_clES3_.exit": ; preds = %1, %5
  ret void
}